; Function Attrs: mustprogress uwtable
define dso_local void @_ZN4absl9StrAppendEPNSt7__cxx1112basic_stringIcSt11char_traitsIcESaIcEEERKNS_8AlphaNumES9_S9_S9_(ptr noundef nonnull %0, ptr noundef nonnull readonly align 8 captures(none) dereferenceable(48) %1, ptr noundef nonnull readonly align 8 captures(none) dereferenceable(48) %2, ptr noundef nonnull readonly align 8 captures(none) dereferenceable(48) %3, ptr noundef nonnull readonly align 8 captures(none) dereferenceable(48) %4) local_unnamed_addr #0 {
  %6 = getelementptr inbounds nuw i8, ptr %0, i64 8
  %7 = load i64, ptr %6, align 8, !tbaa !10
  %8 = load i64, ptr %1, align 8, !tbaa !14
  %9 = load i64, ptr %2, align 8, !tbaa !14
  %10 = add i64 %9, %8
  %11 = load i64, ptr %3, align 8, !tbaa !14
  %12 = add i64 %10, %11
  %13 = load i64, ptr %4, align 8, !tbaa !14
  %14 = add i64 %12, %13
  %15 = tail call noundef nonnull align 8 dereferenceable(32) ptr @_ZNSt7__cxx1112basic_stringIcSt11char_traitsIcESaIcEE14_M_replace_auxEmmmc(ptr noundef nonnull align 8 dereferenceable(32) %0, i64 noundef %7, i64 noundef 0, i64 noundef %14, i8 noundef signext 0)
  %16 = load ptr, ptr %0, align 8, !tbaa !16
  %17 = getelementptr inbounds nuw i8, ptr %16, i64 %7
  %.val21 = load i64, ptr %1, align 8, !tbaa !14
  %.not.i = icmp eq i64 %.val21, 0
  br i1 %.not.i, label %_ZN4absl12_GLOBAL__N_16AppendEPcRKNS_8AlphaNumE.exit, label %18

18:                                               ; preds = %5
  %19 = getelementptr inbounds nuw i8, ptr %1, i64 8
  %.val22 = load ptr, ptr %19, align 8
  tail call void @llvm.memcpy.p0.p0.i64(ptr nonnull align 1 %17, ptr readonly align 1 %.val22, i64 %.val21, i1 false)
  br label %_ZN4absl12_GLOBAL__N_16AppendEPcRKNS_8AlphaNumE.exit

_ZN4absl12_GLOBAL__N_16AppendEPcRKNS_8AlphaNumE.exit: ; preds = %5, %18
  %20 = getelementptr inbounds nuw i8, ptr %17, i64 %.val21
  %.val19 = load i64, ptr %2, align 8, !tbaa !14
  %.not.i23 = icmp eq i64 %.val19, 0
  br i1 %.not.i23, label %_ZN4absl12_GLOBAL__N_16AppendEPcRKNS_8AlphaNumE.exit24, label %21

21:                                               ; preds = %_ZN4absl12_GLOBAL__N_16AppendEPcRKNS_8AlphaNumE.exit
  %22 = getelementptr inbounds nuw i8, ptr %2, i64 8
  %.val20 = load ptr, ptr %22, align 8
  tail call void @llvm.memcpy.p0.p0.i64(ptr nonnull align 1 %20, ptr readonly align 1 %.val20, i64 %.val19, i1 false)
  br label %_ZN4absl12_GLOBAL__N_16AppendEPcRKNS_8AlphaNumE.exit24

_ZN4absl12_GLOBAL__N_16AppendEPcRKNS_8AlphaNumE.exit24: ; preds = %_ZN4absl12_GLOBAL__N_16AppendEPcRKNS_8AlphaNumE.exit, %21
  %23 = getelementptr inbounds nuw i8, ptr %20, i64 %.val19
  %.val17 = load i64, ptr %3, align 8, !tbaa !14
  %.not.i25 = icmp eq i64 %.val17, 0
  br i1 %.not.i25, label %_ZN4absl12_GLOBAL__N_16AppendEPcRKNS_8AlphaNumE.exit26, label %24

24:                                               ; preds = %_ZN4absl12_GLOBAL__N_16AppendEPcRKNS_8AlphaNumE.exit24
  %25 = getelementptr inbounds nuw i8, ptr %3, i64 8
  %.val18 = load ptr, ptr %25, align 8
  tail call void @llvm.memcpy.p0.p0.i64(ptr nonnull align 1 %23, ptr readonly align 1 %.val18, i64 %.val17, i1 false)
  br label %_ZN4absl12_GLOBAL__N_16AppendEPcRKNS_8AlphaNumE.exit26

_ZN4absl12_GLOBAL__N_16AppendEPcRKNS_8AlphaNumE.exit26: ; preds = %_ZN4absl12_GLOBAL__N_16AppendEPcRKNS_8AlphaNumE.exit24, %24
  %.val = load i64, ptr %4, align 8, !tbaa !14
  %.not.i27 = icmp eq i64 %.val, 0
  br i1 %.not.i27, label %_ZN4absl12_GLOBAL__N_16AppendEPcRKNS_8AlphaNumE.exit28, label %26

26:                                               ; preds = %_ZN4absl12_GLOBAL__N_16AppendEPcRKNS_8AlphaNumE.exit26
  %27 = getelementptr inbounds nuw i8, ptr %4, i64 8
  %.val16 = load ptr, ptr %27, align 8
  %28 = getelementptr inbounds nuw i8, ptr %23, i64 %.val17
  tail call void @llvm.memcpy.p0.p0.i64(ptr nonnull align 1 %28, ptr readonly align 1 %.val16, i64 %.val, i1 false)
  br label %_ZN4absl12_GLOBAL__N_16AppendEPcRKNS_8AlphaNumE.exit28

_ZN4absl12_GLOBAL__N_16AppendEPcRKNS_8AlphaNumE.exit28: ; preds = %_ZN4absl12_GLOBAL__N_16AppendEPcRKNS_8AlphaNumE.exit26, %26
  ret void
}